target datalayout = "e-m:e-p270:32:32-p271:32:32-p272:64:64-i64:64-i128:128-f80:128-n8:16:32:64-S128"
target triple = "x86_64-pc-linux-gnu"

%"class.llvm::SmallVectorBase" = type { ptr, i32, i32 }
%"class.std::__cxx11::basic_string" = type { %"struct.std::__cxx11::basic_string<char>::_Alloc_hider", i64, %union.anon.133 }
%"struct.std::__cxx11::basic_string<char>::_Alloc_hider" = type { ptr }
%union.anon.133 = type { i64, [8 x i8] }
%"struct.clang::DiagnosticStorage" = type { i8, [10 x i8], [10 x i64], [10 x %"class.std::__cxx11::basic_string"], %"class.llvm::SmallVector.225", %"class.llvm::SmallVector.230" }
%"class.llvm::SmallVector.225" = type { %"class.llvm::SmallVectorImpl.226", %"struct.llvm::SmallVectorStorage.229" }
%"class.llvm::SmallVectorImpl.226" = type { %"class.llvm::SmallVectorTemplateBase.227" }
%"class.llvm::SmallVectorTemplateBase.227" = type { %"class.llvm::SmallVectorTemplateCommon.228" }
%"class.llvm::SmallVectorTemplateCommon.228" = type { %"class.llvm::SmallVectorBase" }
%"struct.llvm::SmallVectorStorage.229" = type { [96 x i8] }
%"class.llvm::SmallVector.230" = type { %"class.llvm::SmallVectorImpl.231", %"struct.llvm::SmallVectorStorage.234" }
%"class.llvm::SmallVectorImpl.231" = type { %"class.llvm::SmallVectorTemplateBase.232" }
%"class.llvm::SmallVectorTemplateBase.232" = type { %"class.llvm::SmallVectorTemplateCommon.233" }
%"class.llvm::SmallVectorTemplateCommon.233" = type { %"class.llvm::SmallVectorBase" }
%"struct.llvm::SmallVectorStorage.234" = type { [384 x i8] }
%"class.clang::StreamingDiagnostic" = type { ptr, ptr }

; Function Attrs: mustprogress nounwind uwtable
define linkonce_odr hidden noundef ptr @_ZNK5clang19StreamingDiagnostic10getStorageEv(ptr noundef nonnull align 8 dereferenceable(16) %0) #0 comdat align 2 {
  %2 = alloca ptr, align 8
  %3 = alloca ptr, align 8
  store ptr %0, ptr %3, align 8
  %4 = load ptr, ptr %3, align 8
  %5 = getelementptr inbounds nuw %"class.clang::StreamingDiagnostic", ptr %4, i32 0, i32 0
  %6 = load ptr, ptr %5, align 8
  %7 = icmp ne ptr %6, null
  br i1 %7, label %8, label %11

8:                                                ; preds = %1
  %9 = getelementptr inbounds nuw %"class.clang::StreamingDiagnostic", ptr %4, i32 0, i32 0
  %10 = load ptr, ptr %9, align 8
  store ptr %10, ptr %2, align 8
  br label %18

11:                                               ; preds = %1
  %12 = getelementptr inbounds nuw %"class.clang::StreamingDiagnostic", ptr %4, i32 0, i32 1
  %13 = load ptr, ptr %12, align 8
  %14 = call noundef ptr @_ZN5clang19StreamingDiagnostic20DiagStorageAllocator8AllocateEv(ptr noundef nonnull align 8 dereferenceable(14980) %13)
  %15 = getelementptr inbounds nuw %"class.clang::StreamingDiagnostic", ptr %4, i32 0, i32 0
  store ptr %14, ptr %15, align 8
  %16 = getelementptr inbounds nuw %"class.clang::StreamingDiagnostic", ptr %4, i32 0, i32 0
  %17 = load ptr, ptr %16, align 8
  store ptr %17, ptr %2, align 8
  br label %18

18:                                               ; preds = %11, %8
  %19 = load ptr, ptr %2, align 8
  ret ptr %19
}

; Function Attrs: mustprogress nounwind uwtable
define linkonce_odr hidden void @_ZNK5clang19StreamingDiagnostic12AddTaggedValEmNS_17DiagnosticsEngine12ArgumentKindE(ptr noundef nonnull align 8 dereferenceable(16) %0, i64 noundef %1, i32 noundef %2) #0 comdat align 2 {
  %4 = alloca ptr, align 8
  %5 = alloca i64, align 8
  %6 = alloca i32, align 4
  store ptr %0, ptr %4, align 8
  store i64 %1, ptr %5, align 8
  store i32 %2, ptr %6, align 4
  %7 = load ptr, ptr %4, align 8
  %8 = getelementptr inbounds nuw %"class.clang::StreamingDiagnostic", ptr %7, i32 0, i32 0
  %9 = load ptr, ptr %8, align 8
  %10 = icmp ne ptr %9, null
  br i1 %10, label %14, label %11

11:                                               ; preds = %3
  %12 = call noundef ptr @_ZNK5clang19StreamingDiagnostic10getStorageEv(ptr noundef nonnull align 8 dereferenceable(16) %7)
  %13 = getelementptr inbounds nuw %"class.clang::StreamingDiagnostic", ptr %7, i32 0, i32 0
  store ptr %12, ptr %13, align 8
  br label %14

14:                                               ; preds = %11, %3
  %15 = load i32, ptr %6, align 4
  %16 = trunc i32 %15 to i8
  %17 = getelementptr inbounds nuw %"class.clang::StreamingDiagnostic", ptr %7, i32 0, i32 0
  %18 = load ptr, ptr %17, align 8
  %19 = getelementptr inbounds nuw %"struct.clang::DiagnosticStorage", ptr %18, i32 0, i32 1
  %20 = getelementptr inbounds nuw %"class.clang::StreamingDiagnostic", ptr %7, i32 0, i32 0
  %21 = load ptr, ptr %20, align 8
  %22 = getelementptr inbounds nuw %"struct.clang::DiagnosticStorage", ptr %21, i32 0, i32 0
  %23 = load i8, ptr %22, align 8
  %24 = zext i8 %23 to i64
  %25 = getelementptr inbounds [10 x i8], ptr %19, i64 0, i64 %24
  store i8 %16, ptr %25, align 1
  %26 = load i64, ptr %5, align 8
  %27 = getelementptr inbounds nuw %"class.clang::StreamingDiagnostic", ptr %7, i32 0, i32 0
  %28 = load ptr, ptr %27, align 8
  %29 = getelementptr inbounds nuw %"struct.clang::DiagnosticStorage", ptr %28, i32 0, i32 2
  %30 = getelementptr inbounds nuw %"class.clang::StreamingDiagnostic", ptr %7, i32 0, i32 0
  %31 = load ptr, ptr %30, align 8
  %32 = getelementptr inbounds nuw %"struct.clang::DiagnosticStorage", ptr %31, i32 0, i32 0
  %33 = load i8, ptr %32, align 8
  %34 = add i8 %33, 1
  store i8 %34, ptr %32, align 8
  %35 = zext i8 %33 to i64
  %36 = getelementptr inbounds [10 x i64], ptr %29, i64 0, i64 %35
  store i64 %26, ptr %36, align 8
  ret void
}

; Function Attrs: mustprogress nounwind uwtable
define linkonce_odr hidden noundef nonnull align 8 dereferenceable(16) ptr @_ZN5clanglsERKNS_19StreamingDiagnosticEi(ptr noundef nonnull align 8 dereferenceable(16) %0, i32 noundef %1) #0 comdat {
  %3 = alloca ptr, align 8
  %4 = alloca i32, align 4
  store ptr %0, ptr %3, align 8
  store i32 %1, ptr %4, align 4
  %5 = load ptr, ptr %3, align 8
  %6 = load i32, ptr %4, align 4
  %7 = sext i32 %6 to i64
  call void @_ZNK5clang19StreamingDiagnostic12AddTaggedValEmNS_17DiagnosticsEngine12ArgumentKindE(ptr noundef nonnull align 8 dereferenceable(16) %5, i64 noundef %7, i32 noundef 2)
  %8 = load ptr, ptr %3, align 8
  ret ptr %8
}

; Function Attrs: mustprogress nounwind uwtable
define internal noundef nonnull align 8 dereferenceable(20) ptr @"_ZNK5clang17PartialDiagnosticlsI3$_1vEERKS0_OT_"(ptr noundef nonnull align 8 dereferenceable(20) %0, ptr noundef nonnull align 4 dereferenceable(4) %1) #0 align 2 {
  %3 = alloca ptr, align 8
  %4 = alloca ptr, align 8
  %5 = alloca ptr, align 8
  store ptr %0, ptr %3, align 8
  store ptr %1, ptr %4, align 8
  %6 = load ptr, ptr %3, align 8
  store ptr %6, ptr %5, align 8
  %7 = load ptr, ptr %5, align 8
  %8 = load ptr, ptr %4, align 8
  %9 = load i32, ptr %8, align 4
  %10 = call noundef nonnull align 8 dereferenceable(16) ptr @_ZN5clanglsERKNS_19StreamingDiagnosticEi(ptr noundef nonnull align 8 dereferenceable(16) %7, i32 noundef %9)
  ret ptr %6
}