; Function Attrs: mustprogress nounwind uwtable
define internal fastcc noundef nonnull align 8 dereferenceable(20) ptr @"_ZNK5clang17PartialDiagnosticlsI3$_1vEERKS0_OT_"(ptr noundef nonnull returned align 8 dereferenceable(20) %0, i32 %.0.val) unnamed_addr #4 align 2 {
  %2 = load ptr, ptr %0, align 8
  %.not.i.i = icmp eq ptr %2, null
  br i1 %.not.i.i, label %_ZNK5clang19StreamingDiagnostic10getStorageEv.exit.i.i, label %_ZN5clanglsERKNS_19StreamingDiagnosticEi.exit

_ZNK5clang19StreamingDiagnostic10getStorageEv.exit.i.i: ; preds = %1
  %3 = getelementptr inbounds nuw i8, ptr %0, i64 8
  %4 = load ptr, ptr %3, align 8
  %5 = tail call noundef ptr @_ZN5clang19StreamingDiagnostic20DiagStorageAllocator8AllocateEv(ptr noundef nonnull align 8 dereferenceable(14980) %4)
  store ptr %5, ptr %0, align 8
  br label %_ZN5clanglsERKNS_19StreamingDiagnosticEi.exit

_ZN5clanglsERKNS_19StreamingDiagnosticEi.exit:    ; preds = %1, %_ZNK5clang19StreamingDiagnostic10getStorageEv.exit.i.i
  %6 = phi ptr [ %5, %_ZNK5clang19StreamingDiagnostic10getStorageEv.exit.i.i ], [ %2, %1 ]
  %7 = sext i32 %.0.val to i64
  %8 = getelementptr inbounds nuw i8, ptr %6, i64 1
  %9 = load i8, ptr %6, align 8
  %10 = zext i8 %9 to i64
  %11 = getelementptr inbounds [10 x i8], ptr %8, i64 0, i64 %10
  store i8 2, ptr %11, align 1
  %12 = load ptr, ptr %0, align 8
  %13 = getelementptr inbounds nuw i8, ptr %12, i64 16
  %14 = load i8, ptr %12, align 8
  %15 = add i8 %14, 1
  store i8 %15, ptr %12, align 8
  %16 = zext i8 %14 to i64
  %17 = getelementptr inbounds [10 x i64], ptr %13, i64 0, i64 %16
  store i64 %7, ptr %17, align 8
  ret ptr %0
}